target datalayout = "e-m:e-p270:32:32-p271:32:32-p272:64:64-i64:64-i128:128-f80:128-n8:16:32:64-S128"
target triple = "x86_64-pc-linux-gnu"

; Function Attrs: nounwind uwtable
define dso_local zeroext i1 @ic_char_is_idletter(ptr noundef %0, i64 noundef %1) #0 {
  %3 = alloca i1, align 1
  %4 = alloca ptr, align 8
  %5 = alloca i64, align 8
  %6 = alloca i8, align 1
  store ptr %0, ptr %4, align 8, !tbaa !11
  store i64 %1, ptr %5, align 8, !tbaa !9
  %7 = load ptr, ptr %4, align 8, !tbaa !11
  %8 = icmp eq ptr %7, null
  br i1 %8, label %12, label %9

9:                                                ; preds = %2
  %10 = load i64, ptr %5, align 8, !tbaa !9
  %11 = icmp sle i64 %10, 0
  br i1 %11, label %12, label %13

12:                                               ; preds = %9, %2
  store i1 false, ptr %3, align 1
  br label %53

13:                                               ; preds = %9
  call void @llvm.lifetime.start.p0(i64 1, ptr %6) #13
  %14 = load ptr, ptr %4, align 8, !tbaa !11
  %15 = load i8, ptr %14, align 1, !tbaa !13
  store i8 %15, ptr %6, align 1, !tbaa !13
  %16 = load i8, ptr %6, align 1, !tbaa !13
  %17 = zext i8 %16 to i32
  %18 = icmp sge i32 %17, 128
  br i1 %18, label %51, label %19

19:                                               ; preds = %13
  %20 = load i8, ptr %6, align 1, !tbaa !13
  %21 = sext i8 %20 to i32
  %22 = icmp sge i32 %21, 65
  br i1 %22, label %23, label %27

23:                                               ; preds = %19
  %24 = load i8, ptr %6, align 1, !tbaa !13
  %25 = sext i8 %24 to i32
  %26 = icmp sle i32 %25, 90
  br i1 %26, label %51, label %27

27:                                               ; preds = %23, %19
  %28 = load i8, ptr %6, align 1, !tbaa !13
  %29 = sext i8 %28 to i32
  %30 = icmp sge i32 %29, 97
  br i1 %30, label %31, label %35

31:                                               ; preds = %27
  %32 = load i8, ptr %6, align 1, !tbaa !13
  %33 = sext i8 %32 to i32
  %34 = icmp sle i32 %33, 122
  br i1 %34, label %51, label %35

35:                                               ; preds = %31, %27
  %36 = load i8, ptr %6, align 1, !tbaa !13
  %37 = sext i8 %36 to i32
  %38 = icmp sge i32 %37, 48
  br i1 %38, label %39, label %43

39:                                               ; preds = %35
  %40 = load i8, ptr %6, align 1, !tbaa !13
  %41 = sext i8 %40 to i32
  %42 = icmp sle i32 %41, 57
  br i1 %42, label %51, label %43

43:                                               ; preds = %39, %35
  %44 = load i8, ptr %6, align 1, !tbaa !13
  %45 = sext i8 %44 to i32
  %46 = icmp eq i32 %45, 95
  br i1 %46, label %51, label %47

47:                                               ; preds = %43
  %48 = load i8, ptr %6, align 1, !tbaa !13
  %49 = sext i8 %48 to i32
  %50 = icmp eq i32 %49, 45
  br label %51

51:                                               ; preds = %47, %43, %39, %31, %23, %13
  %52 = phi i1 [ true, %43 ], [ true, %39 ], [ true, %31 ], [ true, %23 ], [ true, %13 ], [ %50, %47 ]
  store i1 %52, ptr %3, align 1
  call void @llvm.lifetime.end.p0(i64 1, ptr %6) #13
  br label %53

53:                                               ; preds = %51, %12
  %54 = load i1, ptr %3, align 1
  ret i1 %54
}