; Function Attrs: mustprogress nofree norecurse nosync nounwind willreturn memory(argmem: read) uwtable
define dso_local zeroext i1 @ic_char_is_idletter(ptr noundef readonly %0, i64 noundef %1) local_unnamed_addr #11 {
  %3 = icmp eq ptr %0, null
  %4 = icmp slt i64 %1, 1
  %or.cond = or i1 %3, %4
  br i1 %or.cond, label %14, label %5

5:                                                ; preds = %2
  %6 = load i8, ptr %0, align 1, !tbaa !4
  %7 = icmp slt i8 %6, 0
  %8 = add nsw i8 %6, -65
  %or.cond4 = icmp ult i8 %8, 26
  %or.cond27 = select i1 %7, i1 true, i1 %or.cond4
  %9 = add nsw i8 %6, -97
  %or.cond7 = icmp ult i8 %9, 26
  %or.cond28 = select i1 %or.cond27, i1 true, i1 %or.cond7
  br i1 %or.cond28, label %14, label %10

10:                                               ; preds = %5
  %11 = add nsw i8 %6, -48
  %or.cond10 = icmp ult i8 %11, 10
  %12 = icmp eq i8 %6, 95
  %or.cond13 = or i1 %12, %or.cond10
  %13 = icmp eq i8 %6, 45
  %spec.select = or i1 %13, %or.cond13
  br label %14

14:                                               ; preds = %10, %5, %2
  %.0 = phi i1 [ false, %2 ], [ true, %5 ], [ %spec.select, %10 ]
  ret i1 %.0
}